; Function Attrs: nounwind uwtable
define hidden void @zif_get_defined_vars(ptr noundef readonly captures(none) %0, ptr noundef writeonly captures(none) %1) #0 {
  %3 = getelementptr inbounds nuw i8, ptr %0, i64 44
  %4 = load i32, ptr %3, align 4, !tbaa !28
  %.not = icmp eq i32 %4, 0
  br i1 %.not, label %6, label %5, !prof !69

5:                                                ; preds = %2
  tail call void @zend_wrong_parameters_none_error() #14
  br label %zend_forbid_dynamic_call.exit.thread

6:                                                ; preds = %2
  %7 = load ptr, ptr getelementptr inbounds nuw (i8, ptr @executor_globals, i64 512), align 8, !tbaa !88, !nonnull !74, !noundef !74
  %8 = getelementptr inbounds nuw i8, ptr %7, i64 24
  %9 = load ptr, ptr %8, align 8, !tbaa !89
  %10 = icmp ne ptr %9, null
  tail call void @llvm.assume(i1 %10)
  %11 = getelementptr inbounds nuw i8, ptr %7, i64 40
  %12 = load i32, ptr %11, align 8, !tbaa !28
  %13 = and i32 %12, 33554432
  %.not.i = icmp eq i32 %13, 0
  br i1 %.not.i, label %zend_forbid_dynamic_call.exit, label %14

14:                                               ; preds = %6
  %15 = tail call ptr @get_active_function_or_method_name() #14
  %16 = getelementptr inbounds nuw i8, ptr %15, i64 16
  %17 = load i64, ptr %16, align 8, !tbaa !65
  %18 = trunc i64 %17 to i32
  %19 = getelementptr inbounds nuw i8, ptr %15, i64 24
  tail call void (ptr, ptr, ...) @zend_throw_error(ptr noundef null, ptr noundef nonnull @.str.197, i32 noundef %18, ptr noundef nonnull %19) #14
  %20 = getelementptr inbounds nuw i8, ptr %15, i64 4
  %21 = load i32, ptr %20, align 4, !tbaa !28
  %22 = and i32 %21, 64
  %.not.i10 = icmp eq i32 %22, 0
  br i1 %.not.i10, label %23, label %zend_forbid_dynamic_call.exit.thread

23:                                               ; preds = %14
  %24 = load i32, ptr %15, align 4, !tbaa !30
  %25 = icmp ne i32 %24, 0
  tail call void @llvm.assume(i1 %25)
  %26 = add i32 %24, -1
  store i32 %26, ptr %15, align 4, !tbaa !30
  %27 = icmp eq i32 %26, 0
  br i1 %27, label %28, label %zend_forbid_dynamic_call.exit.thread

28:                                               ; preds = %23
  %29 = and i32 %21, 128
  %.not5.i = icmp eq i32 %29, 0
  br i1 %.not5.i, label %31, label %30

30:                                               ; preds = %28
  tail call void @free(ptr noundef nonnull %15) #14
  br label %zend_forbid_dynamic_call.exit.thread

31:                                               ; preds = %28
  tail call void @_efree(ptr noundef nonnull %15) #14
  br label %zend_forbid_dynamic_call.exit.thread

zend_forbid_dynamic_call.exit:                    ; preds = %6
  %32 = tail call ptr @zend_rebuild_symbol_table() #14
  %33 = icmp eq ptr %32, null
  br i1 %33, label %34, label %36, !prof !62

34:                                               ; preds = %zend_forbid_dynamic_call.exit
  store ptr @zend_empty_array, ptr %1, align 8, !tbaa !28
  %35 = getelementptr inbounds nuw i8, ptr %1, i64 8
  store i32 7, ptr %35, align 8, !tbaa !28
  br label %zend_forbid_dynamic_call.exit.thread

36:                                               ; preds = %zend_forbid_dynamic_call.exit
  %37 = tail call ptr @zend_array_dup(ptr noundef nonnull %32) #14
  store ptr %37, ptr %1, align 8, !tbaa !28
  %38 = getelementptr inbounds nuw i8, ptr %1, i64 8
  store i32 775, ptr %38, align 8, !tbaa !28
  br label %zend_forbid_dynamic_call.exit.thread

zend_forbid_dynamic_call.exit.thread:             ; preds = %31, %30, %23, %14, %36, %34, %5
  ret void
}